; Function Attrs: nounwind uwtable
define internal fastcc void @object_common(ptr noundef %0, ptr noundef %1) unnamed_addr #3 {
  %3 = getelementptr inbounds nuw i8, ptr %0, i64 32
  %4 = load i64, ptr %3, align 8, !tbaa !14
  %.not.i = icmp eq i64 %4, 0
  br i1 %.not.i, label %5, label %6

5:                                                ; preds = %2
  tail call void (ptr, i32, ptr, ...) @BUG_fl(ptr noundef nonnull @.str.4, i32 noundef 74, ptr noundef nonnull @.str.6, ptr noundef %1) #9
  unreachable

6:                                                ; preds = %2
  %7 = getelementptr inbounds nuw i8, ptr %0, i64 40
  %8 = load ptr, ptr %7, align 8, !tbaa !17
  %9 = getelementptr i8, ptr %8, i64 %4
  %10 = getelementptr i8, ptr %9, i64 -1
  %11 = load i8, ptr %10, align 1, !tbaa !13
  %.not5.i = icmp eq i8 %11, 123
  br i1 %.not5.i, label %assert_in_object.exit, label %12

12:                                               ; preds = %6
  tail call void (ptr, i32, ptr, ...) @BUG_fl(ptr noundef nonnull @.str.4, i32 noundef 76, ptr noundef nonnull @.str.7, ptr noundef %1) #9
  unreachable

assert_in_object.exit:                            ; preds = %6
  %13 = getelementptr inbounds nuw i8, ptr %0, i64 48
  %14 = load i8, ptr %13, align 8
  %15 = and i8 %14, 1
  %.not.i12 = icmp eq i8 %15, 0
  br i1 %.not.i12, label %28, label %16

16:                                               ; preds = %assert_in_object.exit
  %17 = load i64, ptr %0, align 8, !tbaa !4
  %.not.i.i.i = icmp eq i64 %17, 0
  br i1 %.not.i.i.i, label %strbuf_avail.exit.thread.i.i, label %strbuf_avail.exit.i.i

strbuf_avail.exit.i.i:                            ; preds = %16
  %18 = getelementptr inbounds nuw i8, ptr %0, i64 8
  %19 = load i64, ptr %18, align 8, !tbaa !11
  %.neg.i.i = add i64 %19, 1
  %.not.i.i = icmp eq i64 %17, %.neg.i.i
  br i1 %.not.i.i, label %strbuf_avail.exit.thread.i.i, label %strbuf_addch.exit.i

strbuf_avail.exit.thread.i.i:                     ; preds = %strbuf_avail.exit.i.i, %16
  tail call void @strbuf_grow(ptr noundef nonnull %0, i64 noundef 1) #8
  %.phi.trans.insert.i.i = getelementptr inbounds nuw i8, ptr %0, i64 8
  %.pre.i.i = load i64, ptr %.phi.trans.insert.i.i, align 8, !tbaa !11
  %.pre7.i.i = add i64 %.pre.i.i, 1
  br label %strbuf_addch.exit.i

strbuf_addch.exit.i:                              ; preds = %strbuf_avail.exit.thread.i.i, %strbuf_avail.exit.i.i
  %.pre-phi.i.i = phi i64 [ %.pre7.i.i, %strbuf_avail.exit.thread.i.i ], [ %.neg.i.i, %strbuf_avail.exit.i.i ]
  %20 = phi i64 [ %.pre.i.i, %strbuf_avail.exit.thread.i.i ], [ %19, %strbuf_avail.exit.i.i ]
  %21 = getelementptr inbounds nuw i8, ptr %0, i64 16
  %22 = load ptr, ptr %21, align 8, !tbaa !12
  %23 = getelementptr inbounds nuw i8, ptr %0, i64 8
  store i64 %.pre-phi.i.i, ptr %23, align 8, !tbaa !11
  %24 = getelementptr inbounds nuw i8, ptr %22, i64 %20
  store i8 44, ptr %24, align 1, !tbaa !13
  %25 = load ptr, ptr %21, align 8, !tbaa !12
  %26 = load i64, ptr %23, align 8, !tbaa !11
  %27 = getelementptr inbounds nuw i8, ptr %25, i64 %26
  store i8 0, ptr %27, align 1, !tbaa !13
  %.pre = load i8, ptr %13, align 8
  br label %maybe_add_comma.exit

28:                                               ; preds = %assert_in_object.exit
  %29 = or disjoint i8 %14, 1
  store i8 %29, ptr %13, align 8
  br label %maybe_add_comma.exit

maybe_add_comma.exit:                             ; preds = %strbuf_addch.exit.i, %28
  %30 = phi i8 [ %.pre, %strbuf_addch.exit.i ], [ %29, %28 ]
  %31 = and i8 %30, 2
  %.not = icmp eq i8 %31, 0
  br i1 %.not, label %45, label %32

32:                                               ; preds = %maybe_add_comma.exit
  %33 = load i64, ptr %0, align 8, !tbaa !4
  %.not.i.i13 = icmp eq i64 %33, 0
  br i1 %.not.i.i13, label %strbuf_avail.exit.thread.i, label %strbuf_avail.exit.i

strbuf_avail.exit.i:                              ; preds = %32
  %34 = getelementptr inbounds nuw i8, ptr %0, i64 8
  %35 = load i64, ptr %34, align 8, !tbaa !11
  %.neg.i = add i64 %35, 1
  %.not.i14 = icmp eq i64 %33, %.neg.i
  br i1 %.not.i14, label %strbuf_avail.exit.thread.i, label %strbuf_addch.exit

strbuf_avail.exit.thread.i:                       ; preds = %strbuf_avail.exit.i, %32
  tail call void @strbuf_grow(ptr noundef nonnull %0, i64 noundef 1) #8
  %.phi.trans.insert.i = getelementptr inbounds nuw i8, ptr %0, i64 8
  %.pre.i = load i64, ptr %.phi.trans.insert.i, align 8, !tbaa !11
  %.pre7.i = add i64 %.pre.i, 1
  br label %strbuf_addch.exit

strbuf_addch.exit:                                ; preds = %strbuf_avail.exit.i, %strbuf_avail.exit.thread.i
  %.pre-phi.i = phi i64 [ %.pre7.i, %strbuf_avail.exit.thread.i ], [ %.neg.i, %strbuf_avail.exit.i ]
  %36 = phi i64 [ %.pre.i, %strbuf_avail.exit.thread.i ], [ %35, %strbuf_avail.exit.i ]
  %37 = getelementptr inbounds nuw i8, ptr %0, i64 16
  %38 = load ptr, ptr %37, align 8, !tbaa !12
  %39 = getelementptr inbounds nuw i8, ptr %0, i64 8
  store i64 %.pre-phi.i, ptr %39, align 8, !tbaa !11
  %40 = getelementptr inbounds nuw i8, ptr %38, i64 %36
  store i8 10, ptr %40, align 1, !tbaa !13
  %41 = load ptr, ptr %37, align 8, !tbaa !12
  %42 = load i64, ptr %39, align 8, !tbaa !11
  %43 = getelementptr inbounds nuw i8, ptr %41, i64 %42
  store i8 0, ptr %43, align 1, !tbaa !13
  %44 = load i64, ptr %3, align 8, !tbaa !14
  tail call void @strbuf_addstrings(ptr noundef nonnull %0, ptr noundef nonnull @.str.24, i64 noundef %44) #8
  br label %45

45:                                               ; preds = %strbuf_addch.exit, %maybe_add_comma.exit
  tail call fastcc void @append_quoted_string(ptr noundef nonnull %0, ptr noundef %1)
  %46 = load i64, ptr %0, align 8, !tbaa !4
  %.not.i.i15 = icmp eq i64 %46, 0
  br i1 %.not.i.i15, label %strbuf_avail.exit.thread.i20, label %strbuf_avail.exit.i16

strbuf_avail.exit.i16:                            ; preds = %45
  %47 = getelementptr inbounds nuw i8, ptr %0, i64 8
  %48 = load i64, ptr %47, align 8, !tbaa !11
  %.neg.i17 = add i64 %48, 1
  %.not.i18 = icmp eq i64 %46, %.neg.i17
  br i1 %.not.i18, label %strbuf_avail.exit.thread.i20, label %strbuf_addch.exit24

strbuf_avail.exit.thread.i20:                     ; preds = %strbuf_avail.exit.i16, %45
  tail call void @strbuf_grow(ptr noundef nonnull %0, i64 noundef 1) #8
  %.phi.trans.insert.i21 = getelementptr inbounds nuw i8, ptr %0, i64 8
  %.pre.i22 = load i64, ptr %.phi.trans.insert.i21, align 8, !tbaa !11
  %.pre7.i23 = add i64 %.pre.i22, 1
  br label %strbuf_addch.exit24

strbuf_addch.exit24:                              ; preds = %strbuf_avail.exit.i16, %strbuf_avail.exit.thread.i20
  %.pre-phi.i19 = phi i64 [ %.pre7.i23, %strbuf_avail.exit.thread.i20 ], [ %.neg.i17, %strbuf_avail.exit.i16 ]
  %49 = phi i64 [ %.pre.i22, %strbuf_avail.exit.thread.i20 ], [ %48, %strbuf_avail.exit.i16 ]
  %50 = getelementptr inbounds nuw i8, ptr %0, i64 16
  %51 = load ptr, ptr %50, align 8, !tbaa !12
  %52 = getelementptr inbounds nuw i8, ptr %0, i64 8
  store i64 %.pre-phi.i19, ptr %52, align 8, !tbaa !11
  %53 = getelementptr inbounds nuw i8, ptr %51, i64 %49
  store i8 58, ptr %53, align 1, !tbaa !13
  %54 = load ptr, ptr %50, align 8, !tbaa !12
  %55 = load i64, ptr %52, align 8, !tbaa !11
  %56 = getelementptr inbounds nuw i8, ptr %54, i64 %55
  store i8 0, ptr %56, align 1, !tbaa !13
  %57 = load i8, ptr %13, align 8
  %58 = and i8 %57, 2
  %.not11 = icmp eq i8 %58, 0
  br i1 %.not11, label %68, label %59

59:                                               ; preds = %strbuf_addch.exit24
  %60 = load i64, ptr %0, align 8, !tbaa !4
  %.not.i.i25 = icmp eq i64 %60, 0
  br i1 %.not.i.i25, label %strbuf_avail.exit.thread.i30, label %strbuf_avail.exit.i26

strbuf_avail.exit.i26:                            ; preds = %59
  %61 = load i64, ptr %52, align 8, !tbaa !11
  %.neg.i27 = add i64 %61, 1
  %.not.i28 = icmp eq i64 %60, %.neg.i27
  br i1 %.not.i28, label %strbuf_avail.exit.thread.i30, label %strbuf_addch.exit34

strbuf_avail.exit.thread.i30:                     ; preds = %strbuf_avail.exit.i26, %59
  tail call void @strbuf_grow(ptr noundef nonnull %0, i64 noundef 1) #8
  %.pre.i32 = load i64, ptr %52, align 8, !tbaa !11
  %.pre7.i33 = add i64 %.pre.i32, 1
  br label %strbuf_addch.exit34

strbuf_addch.exit34:                              ; preds = %strbuf_avail.exit.i26, %strbuf_avail.exit.thread.i30
  %.pre-phi.i29 = phi i64 [ %.pre7.i33, %strbuf_avail.exit.thread.i30 ], [ %.neg.i27, %strbuf_avail.exit.i26 ]
  %62 = phi i64 [ %.pre.i32, %strbuf_avail.exit.thread.i30 ], [ %61, %strbuf_avail.exit.i26 ]
  %63 = load ptr, ptr %50, align 8, !tbaa !12
  store i64 %.pre-phi.i29, ptr %52, align 8, !tbaa !11
  %64 = getelementptr inbounds nuw i8, ptr %63, i64 %62
  store i8 32, ptr %64, align 1, !tbaa !13
  %65 = load ptr, ptr %50, align 8, !tbaa !12
  %66 = load i64, ptr %52, align 8, !tbaa !11
  %67 = getelementptr inbounds nuw i8, ptr %65, i64 %66
  store i8 0, ptr %67, align 1, !tbaa !13
  br label %68

68:                                               ; preds = %strbuf_addch.exit34, %strbuf_addch.exit24
  ret void
}